; Function Attrs: nounwind uwtable
define void @zval_copy_ctor_func(ptr nocapture noundef %0) local_unnamed_addr #0 {
  %2 = getelementptr inbounds i8, ptr %0, i64 8
  %3 = load i8, ptr %2, align 8
  %4 = icmp eq i8 %3, 7
  br i1 %4, label %5, label %8

5:                                                ; preds = %1
  %6 = load ptr, ptr %0, align 8
  %7 = tail call ptr @zend_array_dup(ptr noundef %6) #9
  br label %26

8:                                                ; preds = %1
  %9 = icmp eq i8 %3, 6
  tail call void @llvm.assume(i1 %9)
  %10 = load ptr, ptr %0, align 8
  %11 = getelementptr inbounds i8, ptr %10, i64 4
  %12 = load i32, ptr %11, align 4
  %13 = and i32 %12, 64
  %.not = icmp eq i32 %13, 0
  br i1 %.not, label %14, label %26

14:                                               ; preds = %8
  %15 = getelementptr inbounds i8, ptr %10, i64 24
  %16 = getelementptr inbounds i8, ptr %10, i64 16
  %17 = load i64, ptr %16, align 8
  %18 = and i64 %17, -8
  %19 = add i64 %18, 32
  %20 = tail call noalias ptr @_emalloc(i64 noundef %19) #11
  store i32 1, ptr %20, align 4
  %21 = getelementptr inbounds i8, ptr %20, i64 4
  store i32 22, ptr %21, align 4
  %22 = getelementptr inbounds i8, ptr %20, i64 8
  store i64 0, ptr %22, align 8
  %23 = getelementptr inbounds i8, ptr %20, i64 16
  store i64 %17, ptr %23, align 8
  %24 = getelementptr inbounds i8, ptr %20, i64 24
  tail call void @llvm.memcpy.p0.p0.i64(ptr nonnull align 8 %24, ptr nonnull align 1 %15, i64 %17, i1 false)
  %25 = getelementptr inbounds [1 x i8], ptr %24, i64 0, i64 %17
  store i8 0, ptr %25, align 1
  br label %26

26:                                               ; preds = %14, %8, %5
  %storemerge76 = phi ptr [ %7, %5 ], [ %20, %14 ], [ %10, %8 ]
  %storemerge = phi i32 [ 775, %5 ], [ 262, %14 ], [ 262, %8 ]
  store ptr %storemerge76, ptr %0, align 8
  store i32 %storemerge, ptr %2, align 8
  ret void
}